; Function Attrs: mustprogress uwtable
define dso_local noundef zeroext i1 @_ZNK23FunctionInvocationUnary10compatibleEPK8Variable(ptr nocapture noundef nonnull readonly align 8 dereferenceable(96) %0, ptr noundef %1) unnamed_addr #3 align 2 {
  %3 = getelementptr inbounds i8, ptr %0, i64 16
  %4 = load ptr, ptr %3, align 8
  %5 = getelementptr inbounds i8, ptr %0, i64 24
  %6 = load ptr, ptr %5, align 8
  %7 = icmp eq ptr %4, %6
  br i1 %7, label %14, label %8

8:                                                ; preds = %2
  %9 = load ptr, ptr %4, align 8
  %10 = load ptr, ptr %9, align 8
  %11 = getelementptr inbounds i8, ptr %10, i64 168
  %12 = load ptr, ptr %11, align 8
  %13 = tail call noundef zeroext i1 %12(ptr noundef nonnull align 8 dereferenceable(24) %9, ptr noundef %1)
  br label %14

14:                                               ; preds = %2, %8
  %.0 = phi i1 [ %13, %8 ], [ false, %2 ]
  ret i1 %.0
}